; Function Attrs: nounwind sspstrong uwtable
define internal void @char_vc_class_init(ptr noundef %oc, ptr readnone captures(none) %data) #0 {
entry:
  %call.i = tail call ptr @object_class_dynamic_cast_assert(ptr noundef %oc, ptr noundef nonnull @.str.11, ptr noundef nonnull @.str.12, i32 noundef 231, ptr noundef nonnull @__func__.CHARDEV_CLASS) #12
  %parse = getelementptr inbounds nuw i8, ptr %call.i, i64 104
  store ptr @vc_chr_parse, ptr %parse, align 8
  %open = getelementptr inbounds nuw i8, ptr %call.i, i64 112
  store ptr @vc_chr_open, ptr %open, align 8
  %chr_write = getelementptr inbounds nuw i8, ptr %call.i, i64 120
  store ptr @vc_chr_write, ptr %chr_write, align 8
  %chr_accept_input = getelementptr inbounds nuw i8, ptr %call.i, i64 200
  store ptr @vc_chr_accept_input, ptr %chr_accept_input, align 8
  %chr_set_echo = getelementptr inbounds nuw i8, ptr %call.i, i64 208
  store ptr @vc_chr_set_echo, ptr %chr_set_echo, align 8
  ret void
}